target datalayout = "e-m:e-p270:32:32-p271:32:32-p272:64:64-i64:64-i128:128-f80:128-n8:16:32:64-S128"
target triple = "x86_64-pc-linux-gnu"

%struct.Aig_Man_t_ = type { ptr, ptr, ptr, ptr, ptr, ptr, ptr, %struct.Aig_Obj_t_, i32, i32, i32, i32, i32, i32, [7 x i32], i32, ptr, i32, ptr, i32, ptr, i32, i32, i32, ptr, i32, i32, i32, i32, i32, ptr, ptr, i32, ptr, ptr, i32, ptr, ptr, i32, i32, i32, ptr, ptr, ptr, ptr, ptr, ptr, ptr, ptr, ptr, ptr, ptr, ptr, ptr, ptr, i32, ptr, ptr, ptr, ptr, i32, i64, i64, i64, ptr, ptr }
%struct.Aig_Obj_t_ = type { %union.anon, ptr, ptr, i64, i32, i32, %union.anon.0 }
%union.anon = type { ptr }
%union.anon.0 = type { ptr }

; Function Attrs: inlinehint nounwind uwtable
define internal i32 @Aig_IsComplement(ptr noundef %0) #3 {
  %2 = alloca ptr, align 8
  store ptr %0, ptr %2, align 8, !tbaa !28
  %3 = load ptr, ptr %2, align 8, !tbaa !28
  %4 = ptrtoint ptr %3 to i64
  %5 = and i64 %4, 1
  %6 = trunc i64 %5 to i32
  ret i32 %6
}

; Function Attrs: inlinehint nounwind uwtable
define internal ptr @Aig_Regular(ptr noundef %0) #3 {
  %2 = alloca ptr, align 8
  store ptr %0, ptr %2, align 8, !tbaa !28
  %3 = load ptr, ptr %2, align 8, !tbaa !28
  %4 = ptrtoint ptr %3 to i64
  %5 = and i64 %4, -2
  %6 = inttoptr i64 %5 to ptr
  ret ptr %6
}

; Function Attrs: inlinehint nounwind uwtable
define internal ptr @Aig_Not(ptr noundef %0) #3 {
  %2 = alloca ptr, align 8
  store ptr %0, ptr %2, align 8, !tbaa !28
  %3 = load ptr, ptr %2, align 8, !tbaa !28
  %4 = ptrtoint ptr %3 to i64
  %5 = xor i64 %4, 1
  %6 = inttoptr i64 %5 to ptr
  ret ptr %6
}

; Function Attrs: inlinehint nounwind uwtable
define internal i32 @Aig_ObjIsNode(ptr noundef %0) #3 {
  %2 = alloca ptr, align 8
  store ptr %0, ptr %2, align 8, !tbaa !28
  %3 = load ptr, ptr %2, align 8, !tbaa !28
  %4 = getelementptr inbounds nuw %struct.Aig_Obj_t_, ptr %3, i32 0, i32 3
  %5 = load i64, ptr %4, align 8
  %6 = and i64 %5, 7
  %7 = trunc i64 %6 to i32
  %8 = icmp eq i32 %7, 5
  br i1 %8, label %16, label %9

9:                                                ; preds = %1
  %10 = load ptr, ptr %2, align 8, !tbaa !28
  %11 = getelementptr inbounds nuw %struct.Aig_Obj_t_, ptr %10, i32 0, i32 3
  %12 = load i64, ptr %11, align 8
  %13 = and i64 %12, 7
  %14 = trunc i64 %13 to i32
  %15 = icmp eq i32 %14, 6
  br label %16

16:                                               ; preds = %9, %1
  %17 = phi i1 [ true, %1 ], [ %15, %9 ]
  %18 = zext i1 %17 to i32
  ret i32 %18
}

; Function Attrs: inlinehint nounwind uwtable
define internal ptr @Aig_ManConst0(ptr noundef %0) #3 {
  %2 = alloca ptr, align 8
  store ptr %0, ptr %2, align 8, !tbaa !3
  %3 = load ptr, ptr %2, align 8, !tbaa !3
  %4 = getelementptr inbounds nuw %struct.Aig_Man_t_, ptr %3, i32 0, i32 6
  %5 = load ptr, ptr %4, align 8, !tbaa !41
  %6 = call ptr @Aig_Not(ptr noundef %5)
  ret ptr %6
}

; Function Attrs: inlinehint nounwind uwtable
define internal i32 @Aig_ObjFaninC0(ptr noundef %0) #3 {
  %2 = alloca ptr, align 8
  store ptr %0, ptr %2, align 8, !tbaa !28
  %3 = load ptr, ptr %2, align 8, !tbaa !28
  %4 = getelementptr inbounds nuw %struct.Aig_Obj_t_, ptr %3, i32 0, i32 1
  %5 = load ptr, ptr %4, align 8, !tbaa !40
  %6 = call i32 @Aig_IsComplement(ptr noundef %5)
  ret i32 %6
}

; Function Attrs: inlinehint nounwind uwtable
define internal i32 @Aig_ObjIsConst1(ptr noundef %0) #3 {
  %2 = alloca ptr, align 8
  store ptr %0, ptr %2, align 8, !tbaa !28
  %3 = load ptr, ptr %2, align 8, !tbaa !28
  %4 = getelementptr inbounds nuw %struct.Aig_Obj_t_, ptr %3, i32 0, i32 3
  %5 = load i64, ptr %4, align 8
  %6 = and i64 %5, 7
  %7 = trunc i64 %6 to i32
  %8 = icmp eq i32 %7, 1
  %9 = zext i1 %8 to i32
  ret i32 %9
}

; Function Attrs: inlinehint nounwind uwtable
define internal ptr @Aig_ObjFanin0(ptr noundef %0) #3 {
  %2 = alloca ptr, align 8
  store ptr %0, ptr %2, align 8, !tbaa !28
  %3 = load ptr, ptr %2, align 8, !tbaa !28
  %4 = getelementptr inbounds nuw %struct.Aig_Obj_t_, ptr %3, i32 0, i32 1
  %5 = load ptr, ptr %4, align 8, !tbaa !40
  %6 = call ptr @Aig_Regular(ptr noundef %5)
  ret ptr %6
}

; Function Attrs: nounwind uwtable
define i32 @Saig_ManDemiterCheckPo(ptr noundef %0, ptr noundef %1, ptr noundef %2, ptr noundef %3) #0 {
  %5 = alloca i32, align 4
  %6 = alloca ptr, align 8
  %7 = alloca ptr, align 8
  %8 = alloca ptr, align 8
  %9 = alloca ptr, align 8
  %10 = alloca ptr, align 8
  %11 = alloca ptr, align 8
  %12 = alloca ptr, align 8
  %13 = alloca ptr, align 8
  %14 = alloca ptr, align 8
  %15 = alloca i32, align 4
  store ptr %0, ptr %6, align 8, !tbaa !3
  store ptr %1, ptr %7, align 8, !tbaa !28
  store ptr %2, ptr %8, align 8, !tbaa !63
  store ptr %3, ptr %9, align 8, !tbaa !63
  call void @llvm.lifetime.start.p0(i64 8, ptr %10) #10
  call void @llvm.lifetime.start.p0(i64 8, ptr %11) #10
  call void @llvm.lifetime.start.p0(i64 8, ptr %12) #10
  call void @llvm.lifetime.start.p0(i64 8, ptr %13) #10
  call void @llvm.lifetime.start.p0(i64 8, ptr %14) #10
  %16 = load ptr, ptr %7, align 8, !tbaa !28
  %17 = call ptr @Aig_ObjFanin0(ptr noundef %16)
  store ptr %17, ptr %10, align 8, !tbaa !28
  %18 = load ptr, ptr %10, align 8, !tbaa !28
  %19 = call i32 @Aig_ObjIsConst1(ptr noundef %18)
  %20 = icmp ne i32 %19, 0
  br i1 %20, label %21, label %33

21:                                               ; preds = %4
  %22 = load ptr, ptr %7, align 8, !tbaa !28
  %23 = call i32 @Aig_ObjFaninC0(ptr noundef %22)
  %24 = icmp ne i32 %23, 0
  br i1 %24, label %26, label %25

25:                                               ; preds = %21
  store i32 0, ptr %5, align 4
  store i32 1, ptr %15, align 4
  br label %184

26:                                               ; preds = %21
  %27 = load ptr, ptr %6, align 8, !tbaa !3
  %28 = call ptr @Aig_ManConst0(ptr noundef %27)
  %29 = load ptr, ptr %8, align 8, !tbaa !63
  store ptr %28, ptr %29, align 8, !tbaa !28
  %30 = load ptr, ptr %6, align 8, !tbaa !3
  %31 = call ptr @Aig_ManConst0(ptr noundef %30)
  %32 = load ptr, ptr %9, align 8, !tbaa !63
  store ptr %31, ptr %32, align 8, !tbaa !28
  store i32 1, ptr %5, align 4
  store i32 1, ptr %15, align 4
  br label %184

33:                                               ; preds = %4
  %34 = load ptr, ptr %10, align 8, !tbaa !28
  %35 = call i32 @Aig_ObjIsNode(ptr noundef %34)
  %36 = icmp ne i32 %35, 0
  br i1 %36, label %38, label %37

37:                                               ; preds = %33
  store i32 0, ptr %5, align 4
  store i32 1, ptr %15, align 4
  br label %184

38:                                               ; preds = %33
  %39 = load ptr, ptr %10, align 8, !tbaa !28
  %40 = call i32 @Aig_ObjRecognizeExor(ptr noundef %39, ptr noundef %11, ptr noundef %12)
  %41 = icmp ne i32 %40, 0
  br i1 %41, label %43, label %42

42:                                               ; preds = %38
  store i32 0, ptr %5, align 4
  store i32 1, ptr %15, align 4
  br label %184

43:                                               ; preds = %38
  %44 = load ptr, ptr %7, align 8, !tbaa !28
  %45 = call i32 @Aig_ObjFaninC0(ptr noundef %44)
  %46 = icmp ne i32 %45, 0
  br i1 %46, label %47, label %50

47:                                               ; preds = %43
  %48 = load ptr, ptr %11, align 8, !tbaa !28
  %49 = call ptr @Aig_Not(ptr noundef %48)
  store ptr %49, ptr %11, align 8, !tbaa !28
  br label %50

50:                                               ; preds = %47, %43
  %51 = load ptr, ptr %11, align 8, !tbaa !28
  %52 = call ptr @Aig_Regular(ptr noundef %51)
  store ptr %52, ptr %13, align 8, !tbaa !28
  %53 = load ptr, ptr %12, align 8, !tbaa !28
  %54 = call ptr @Aig_Regular(ptr noundef %53)
  store ptr %54, ptr %14, align 8, !tbaa !28
  %55 = load ptr, ptr %13, align 8, !tbaa !28
  %56 = getelementptr inbounds nuw %struct.Aig_Obj_t_, ptr %55, i32 0, i32 3
  %57 = load i64, ptr %56, align 8
  %58 = lshr i64 %57, 4
  %59 = and i64 %58, 1
  %60 = trunc i64 %59 to i32
  %61 = icmp ne i32 %60, 0
  br i1 %61, label %62, label %70

62:                                               ; preds = %50
  %63 = load ptr, ptr %13, align 8, !tbaa !28
  %64 = getelementptr inbounds nuw %struct.Aig_Obj_t_, ptr %63, i32 0, i32 3
  %65 = load i64, ptr %64, align 8
  %66 = lshr i64 %65, 5
  %67 = and i64 %66, 1
  %68 = trunc i64 %67 to i32
  %69 = icmp ne i32 %68, 0
  br i1 %69, label %118, label %70

70:                                               ; preds = %62, %50
  %71 = load ptr, ptr %14, align 8, !tbaa !28
  %72 = getelementptr inbounds nuw %struct.Aig_Obj_t_, ptr %71, i32 0, i32 3
  %73 = load i64, ptr %72, align 8
  %74 = lshr i64 %73, 4
  %75 = and i64 %74, 1
  %76 = trunc i64 %75 to i32
  %77 = icmp ne i32 %76, 0
  br i1 %77, label %78, label %86

78:                                               ; preds = %70
  %79 = load ptr, ptr %14, align 8, !tbaa !28
  %80 = getelementptr inbounds nuw %struct.Aig_Obj_t_, ptr %79, i32 0, i32 3
  %81 = load i64, ptr %80, align 8
  %82 = lshr i64 %81, 5
  %83 = and i64 %82, 1
  %84 = trunc i64 %83 to i32
  %85 = icmp ne i32 %84, 0
  br i1 %85, label %118, label %86

86:                                               ; preds = %78, %70
  %87 = load ptr, ptr %13, align 8, !tbaa !28
  %88 = getelementptr inbounds nuw %struct.Aig_Obj_t_, ptr %87, i32 0, i32 3
  %89 = load i64, ptr %88, align 8
  %90 = lshr i64 %89, 4
  %91 = and i64 %90, 1
  %92 = trunc i64 %91 to i32
  %93 = icmp ne i32 %92, 0
  br i1 %93, label %94, label %102

94:                                               ; preds = %86
  %95 = load ptr, ptr %14, align 8, !tbaa !28
  %96 = getelementptr inbounds nuw %struct.Aig_Obj_t_, ptr %95, i32 0, i32 3
  %97 = load i64, ptr %96, align 8
  %98 = lshr i64 %97, 4
  %99 = and i64 %98, 1
  %100 = trunc i64 %99 to i32
  %101 = icmp ne i32 %100, 0
  br i1 %101, label %118, label %102

102:                                              ; preds = %94, %86
  %103 = load ptr, ptr %13, align 8, !tbaa !28
  %104 = getelementptr inbounds nuw %struct.Aig_Obj_t_, ptr %103, i32 0, i32 3
  %105 = load i64, ptr %104, align 8
  %106 = lshr i64 %105, 5
  %107 = and i64 %106, 1
  %108 = trunc i64 %107 to i32
  %109 = icmp ne i32 %108, 0
  br i1 %109, label %110, label %119

110:                                              ; preds = %102
  %111 = load ptr, ptr %14, align 8, !tbaa !28
  %112 = getelementptr inbounds nuw %struct.Aig_Obj_t_, ptr %111, i32 0, i32 3
  %113 = load i64, ptr %112, align 8
  %114 = lshr i64 %113, 5
  %115 = and i64 %114, 1
  %116 = trunc i64 %115 to i32
  %117 = icmp ne i32 %116, 0
  br i1 %117, label %118, label %119

118:                                              ; preds = %110, %94, %78, %62
  store i32 0, ptr %5, align 4
  store i32 1, ptr %15, align 4
  br label %184

119:                                              ; preds = %110, %102
  %120 = load ptr, ptr %14, align 8, !tbaa !28
  %121 = getelementptr inbounds nuw %struct.Aig_Obj_t_, ptr %120, i32 0, i32 3
  %122 = load i64, ptr %121, align 8
  %123 = lshr i64 %122, 4
  %124 = and i64 %123, 1
  %125 = trunc i64 %124 to i32
  %126 = icmp ne i32 %125, 0
  br i1 %126, label %127, label %140

127:                                              ; preds = %119
  %128 = load ptr, ptr %13, align 8, !tbaa !28
  %129 = getelementptr inbounds nuw %struct.Aig_Obj_t_, ptr %128, i32 0, i32 3
  %130 = load i64, ptr %129, align 8
  %131 = lshr i64 %130, 4
  %132 = and i64 %131, 1
  %133 = trunc i64 %132 to i32
  %134 = icmp ne i32 %133, 0
  br i1 %134, label %140, label %135

135:                                              ; preds = %127
  %136 = load ptr, ptr %12, align 8, !tbaa !28
  %137 = load ptr, ptr %8, align 8, !tbaa !63
  store ptr %136, ptr %137, align 8, !tbaa !28
  %138 = load ptr, ptr %11, align 8, !tbaa !28
  %139 = load ptr, ptr %9, align 8, !tbaa !63
  store ptr %138, ptr %139, align 8, !tbaa !28
  br label %183

140:                                              ; preds = %127, %119
  %141 = load ptr, ptr %13, align 8, !tbaa !28
  %142 = getelementptr inbounds nuw %struct.Aig_Obj_t_, ptr %141, i32 0, i32 3
  %143 = load i64, ptr %142, align 8
  %144 = lshr i64 %143, 4
  %145 = and i64 %144, 1
  %146 = trunc i64 %145 to i32
  %147 = icmp ne i32 %146, 0
  br i1 %147, label %148, label %161

148:                                              ; preds = %140
  %149 = load ptr, ptr %14, align 8, !tbaa !28
  %150 = getelementptr inbounds nuw %struct.Aig_Obj_t_, ptr %149, i32 0, i32 3
  %151 = load i64, ptr %150, align 8
  %152 = lshr i64 %151, 4
  %153 = and i64 %152, 1
  %154 = trunc i64 %153 to i32
  %155 = icmp ne i32 %154, 0
  br i1 %155, label %161, label %156

156:                                              ; preds = %148
  %157 = load ptr, ptr %11, align 8, !tbaa !28
  %158 = load ptr, ptr %8, align 8, !tbaa !63
  store ptr %157, ptr %158, align 8, !tbaa !28
  %159 = load ptr, ptr %12, align 8, !tbaa !28
  %160 = load ptr, ptr %9, align 8, !tbaa !63
  store ptr %159, ptr %160, align 8, !tbaa !28
  br label %182

161:                                              ; preds = %148, %140
  %162 = load ptr, ptr %11, align 8, !tbaa !28
  %163 = call ptr @Aig_Regular(ptr noundef %162)
  %164 = getelementptr inbounds nuw %struct.Aig_Obj_t_, ptr %163, i32 0, i32 5
  %165 = load i32, ptr %164, align 4, !tbaa !93
  %166 = load ptr, ptr %12, align 8, !tbaa !28
  %167 = call ptr @Aig_Regular(ptr noundef %166)
  %168 = getelementptr inbounds nuw %struct.Aig_Obj_t_, ptr %167, i32 0, i32 5
  %169 = load i32, ptr %168, align 4, !tbaa !93
  %170 = icmp slt i32 %165, %169
  br i1 %170, label %171, label %176

171:                                              ; preds = %161
  %172 = load ptr, ptr %11, align 8, !tbaa !28
  %173 = load ptr, ptr %8, align 8, !tbaa !63
  store ptr %172, ptr %173, align 8, !tbaa !28
  %174 = load ptr, ptr %12, align 8, !tbaa !28
  %175 = load ptr, ptr %9, align 8, !tbaa !63
  store ptr %174, ptr %175, align 8, !tbaa !28
  br label %181

176:                                              ; preds = %161
  %177 = load ptr, ptr %12, align 8, !tbaa !28
  %178 = load ptr, ptr %8, align 8, !tbaa !63
  store ptr %177, ptr %178, align 8, !tbaa !28
  %179 = load ptr, ptr %11, align 8, !tbaa !28
  %180 = load ptr, ptr %9, align 8, !tbaa !63
  store ptr %179, ptr %180, align 8, !tbaa !28
  br label %181

181:                                              ; preds = %176, %171
  br label %182

182:                                              ; preds = %181, %156
  br label %183

183:                                              ; preds = %182, %135
  store i32 1, ptr %5, align 4
  store i32 1, ptr %15, align 4
  br label %184

184:                                              ; preds = %183, %118, %42, %37, %26, %25
  call void @llvm.lifetime.end.p0(i64 8, ptr %14) #10
  call void @llvm.lifetime.end.p0(i64 8, ptr %13) #10
  call void @llvm.lifetime.end.p0(i64 8, ptr %12) #10
  call void @llvm.lifetime.end.p0(i64 8, ptr %11) #10
  call void @llvm.lifetime.end.p0(i64 8, ptr %10) #10
  %185 = load i32, ptr %5, align 4
  ret i32 %185
}