; Function Attrs: nounwind uwtable
define range(i32 0, 2) i32 @Saig_ManDemiterCheckPo(ptr noundef readonly captures(none) %0, ptr noundef readonly captures(none) %1, ptr noundef writeonly captures(none) %2, ptr noundef writeonly captures(none) %3) local_unnamed_addr #3 {
  %5 = alloca ptr, align 8
  %6 = alloca ptr, align 8
  call void @llvm.lifetime.start.p0(i64 8, ptr nonnull %5) #18
  call void @llvm.lifetime.start.p0(i64 8, ptr nonnull %6) #18
  %7 = getelementptr i8, ptr %1, i64 8
  %.val49 = load ptr, ptr %7, align 8, !tbaa !32
  %8 = ptrtoint ptr %.val49 to i64
  %9 = and i64 %8, -2
  %10 = inttoptr i64 %9 to ptr
  %11 = getelementptr i8, ptr %10, i64 24
  %.val52 = load i64, ptr %11, align 8
  %12 = and i64 %.val52, 7
  %.not = icmp eq i64 %12, 1
  br i1 %.not, label %13, label %23

13:                                               ; preds = %4
  %14 = and i64 %8, 1
  %.not45 = icmp eq i64 %14, 0
  br i1 %.not45, label %67, label %15

15:                                               ; preds = %13
  %16 = getelementptr i8, ptr %0, i64 48
  %.val47 = load ptr, ptr %16, align 8, !tbaa !30
  %17 = ptrtoint ptr %.val47 to i64
  %18 = xor i64 %17, 1
  %19 = inttoptr i64 %18 to ptr
  store ptr %19, ptr %2, align 8, !tbaa !56
  %.val = load ptr, ptr %16, align 8, !tbaa !30
  %20 = ptrtoint ptr %.val to i64
  %21 = xor i64 %20, 1
  %22 = inttoptr i64 %21 to ptr
  br label %.sink.split

23:                                               ; preds = %4
  %24 = trunc i64 %.val52 to i32
  %25 = and i32 %24, 7
  %26 = add nsw i32 %25, -7
  %narrow.i = icmp ult i32 %26, -2
  br i1 %narrow.i, label %67, label %27

27:                                               ; preds = %23
  %28 = call i32 @Aig_ObjRecognizeExor(ptr noundef nonnull %10, ptr noundef nonnull %5, ptr noundef nonnull %6) #18
  %.not31 = icmp eq i32 %28, 0
  br i1 %.not31, label %67, label %29

29:                                               ; preds = %27
  %.val50 = load ptr, ptr %7, align 8, !tbaa !32
  %30 = ptrtoint ptr %.val50 to i64
  %31 = and i64 %30, 1
  %.not32 = icmp eq i64 %31, 0
  %.pre = load ptr, ptr %5, align 8, !tbaa !56
  %32 = ptrtoint ptr %.pre to i64
  %33 = xor i64 %32, 1
  %34 = inttoptr i64 %33 to ptr
  %35 = select i1 %.not32, ptr %.pre, ptr %34
  %36 = ptrtoint ptr %35 to i64
  %37 = and i64 %36, -2
  %38 = inttoptr i64 %37 to ptr
  %39 = load ptr, ptr %6, align 8, !tbaa !56
  %40 = ptrtoint ptr %39 to i64
  %41 = and i64 %40, -2
  %42 = inttoptr i64 %41 to ptr
  %43 = getelementptr inbounds nuw i8, ptr %38, i64 24
  %44 = load i64, ptr %43, align 8
  %45 = and i64 %44, 16
  %.not33 = icmp eq i64 %45, 0
  %46 = and i64 %44, 48
  %or.cond.not = icmp eq i64 %46, 48
  br i1 %or.cond.not, label %67, label %47

47:                                               ; preds = %29
  %48 = getelementptr inbounds nuw i8, ptr %42, i64 24
  %49 = load i64, ptr %48, align 8
  %50 = and i64 %49, 48
  %or.cond46 = icmp ne i64 %50, 48
  %51 = and i64 %46, %49
  %52 = icmp eq i64 %51, 0
  %or.cond56 = and i1 %or.cond46, %52
  br i1 %or.cond56, label %53, label %67

53:                                               ; preds = %47
  %54 = and i64 %49, 16
  %.not35 = icmp eq i64 %54, 0
  br i1 %.not35, label %57, label %55

55:                                               ; preds = %53
  br i1 %.not33, label %56, label %59

56:                                               ; preds = %55
  store ptr %39, ptr %2, align 8, !tbaa !56
  br label %.sink.split

57:                                               ; preds = %53
  br i1 %.not33, label %59, label %58

58:                                               ; preds = %57
  store ptr %35, ptr %2, align 8, !tbaa !56
  br label %.sink.split

59:                                               ; preds = %55, %57
  %60 = getelementptr inbounds nuw i8, ptr %38, i64 36
  %61 = load i32, ptr %60, align 4, !tbaa !83
  %62 = getelementptr inbounds nuw i8, ptr %42, i64 36
  %63 = load i32, ptr %62, align 4, !tbaa !83
  %64 = icmp slt i32 %61, %63
  br i1 %64, label %65, label %66

65:                                               ; preds = %59
  store ptr %35, ptr %2, align 8, !tbaa !56
  br label %.sink.split

66:                                               ; preds = %59
  store ptr %39, ptr %2, align 8, !tbaa !56
  br label %.sink.split

.sink.split:                                      ; preds = %15, %58, %66, %65, %56
  %.sink = phi ptr [ %35, %56 ], [ %39, %65 ], [ %35, %66 ], [ %39, %58 ], [ %22, %15 ]
  store ptr %.sink, ptr %3, align 8, !tbaa !56
  br label %67

67:                                               ; preds = %.sink.split, %29, %47, %27, %23, %13
  %.0 = phi i32 [ 0, %13 ], [ 0, %23 ], [ 0, %27 ], [ 0, %47 ], [ 0, %29 ], [ 1, %.sink.split ]
  call void @llvm.lifetime.end.p0(i64 8, ptr nonnull %6) #18
  call void @llvm.lifetime.end.p0(i64 8, ptr nonnull %5) #18
  ret i32 %.0
}